; Function Attrs: nounwind uwtable
define hidden i32 @_glfwCreateWindowSurfaceWayland(ptr noundef %0, ptr noundef readonly captures(none) %1, ptr noundef %2, ptr noundef %3) local_unnamed_addr #0 {
  %5 = alloca %struct.VkWaylandSurfaceCreateInfoKHR, align 8
  call void @llvm.lifetime.start.p0(i64 40, ptr nonnull %5) #20
  %6 = load ptr, ptr getelementptr inbounds nuw (i8, ptr @_glfw, i64 133832), align 8, !tbaa !349
  %7 = tail call ptr %6(ptr noundef %0, ptr noundef nonnull @.str.38) #20
  %.not = icmp eq ptr %7, null
  br i1 %.not, label %8, label %9

8:                                                ; preds = %4
  tail call void (i32, ptr, ...) @_glfwInputError(i32 noundef 65542, ptr noundef nonnull @.str.37) #20
  br label %18

9:                                                ; preds = %4
  call void @llvm.memset.p0.i64(ptr noundef nonnull align 8 dereferenceable(40) %5, i8 0, i64 24, i1 false)
  store i32 1000006000, ptr %5, align 8, !tbaa !350
  %10 = load ptr, ptr getelementptr inbounds nuw (i8, ptr @_glfw, i64 133888), align 8, !tbaa !232
  %11 = getelementptr inbounds nuw i8, ptr %5, i64 24
  store ptr %10, ptr %11, align 8, !tbaa !352
  %12 = getelementptr inbounds nuw i8, ptr %1, i64 904
  %13 = load ptr, ptr %12, align 8, !tbaa !135
  %14 = getelementptr inbounds nuw i8, ptr %5, i64 32
  store ptr %13, ptr %14, align 8, !tbaa !353
  %15 = call i32 %7(ptr noundef %0, ptr noundef nonnull %5, ptr noundef %2, ptr noundef %3) #20
  %.not12 = icmp eq i32 %15, 0
  br i1 %.not12, label %18, label %16

16:                                               ; preds = %9
  %17 = call ptr @_glfwGetVulkanResultString(i32 noundef %15) #20
  call void (i32, ptr, ...) @_glfwInputError(i32 noundef 65544, ptr noundef nonnull @.str.39, ptr noundef %17) #20
  br label %18

18:                                               ; preds = %9, %16, %8
  %.0 = phi i32 [ -7, %8 ], [ %15, %16 ], [ 0, %9 ]
  call void @llvm.lifetime.end.p0(i64 40, ptr nonnull %5) #20
  ret i32 %.0
}